(dp1
S'output'
p2
S"<class 'sqlite3.IntegrityError'> foreign key constraint failed"
p3
sS'layer'
p4
S'E:\\web2py\\applications\\ScaviHunt\\controllers/default.py'
p5
sS'code'
p6
S'# -*- coding: utf-8 -*-\n\n#################### Main Pages ####################\n\ndef index():\n    """ Main view of application """\n    """ Contains group documentation and application guides """\n    allGuides = db.guidePost\n    guideRows = db(allGuides).select(orderby = ~db.guidePost.postDate)\n    postQuery = db.guidePost.postTitle\n    rows = db(postQuery).select(orderby = db.guidePost.postTitle)\n    return dict(rows = rows, guideRows = guideRows)\n\ndef hunt_admin():\n    """ Administration page for viewing/editing scavenger hunts """\n    scaviQuery = db.scavenger_hunt.name\n    rows = db(scaviQuery).select(orderby=db.scavenger_hunt.name)\n    return dict(rows = rows)\n\ndef user_admin():\n    """ Administration page for viewing/editing users """\n    allUsers = db.auth_user\n    userRows = db(allUsers).select(orderby = db.auth_user.last_name)\n    \n    form = SQLFORM.factory(Field(\'keyword\', requires=IS_NOT_EMPTY())).process()\n    if form.accepted:\n        query = (((db.auth_user.first_name.contains(form.vars.keyword)) |\n                (db.auth_user.last_name.contains(form.vars.keyword))))\n        rows = db(query).select(orderby = db.auth_user.last_name)\n    else:\n        rows = \'\'\n    return dict(form=form, rows=rows, userRows = userRows)\n\ndef googleMap():\n    """ Uses google maps to get most accurate coordinates for scavenger sessions """\n    """ This was moved to clue_EDIT as that is where the coordinates functionality """\n    """ is needed most. If you want to re-use, re-add to the menu in model/menu.py file """\n    from gluon.tools import geocode\n    latitude = longtitude = \'\'\n    form=SQLFORM.factory(Field(\'search\'), _class=\'form-search\')\n    form.custom.widget.search[\'_class\'] = \'input-long search-query\'\n    form.custom.submit[\'_value\'] = \'Search\'\n    form.custom.submit[\'_class\'] = \'btn\'\n    if form.accepts(request):\n        address=form.vars.search\n        (latitude, longitude) = geocode(address)\n    else:\n        (latitude, longitude) = (\'\',\'\')\n    return dict(form=form, latitude=latitude, longitude=longitude)\n\n#################### _CLICK Pages ####################\n\ndef guidePost_CLICK():\n    """ Loads individual page for selected front page post """\n    guide_id = request.args(0, cast=int)\n    guide = db.guidePost(guide_id) or redirect (URL(\'index\'))\n    guideQuery = db(db.guidePost.id).select()\n    return dict(guideQuery = guideQuery, guide = guide)\n\ndef hunt_admin_CLICK():\n    """ Loads individual page for selected scavenger hunt """\n    scavenger_id = request.args(0, cast=int)\n    scavengerHunt = db.scavenger_hunt(scavenger_id) or redirect(URL(\'hunt_admin\'))\n    \n    clueQuery = db.clue.hunt_id==scavenger_id\n    clueRows = db(clueQuery).select()\n    \n    sessionQuery = db.scavi_session.hunt_id==scavenger_id\n    sessionRows = db(sessionQuery).select()\n\n    return dict(scavengerHunt = scavengerHunt, clueRows = clueRows,\n                sessionRows = sessionRows)\n\ndef user_CLICK():\n    """ Loads individual page for selected user """\n    user_id = request.args(0, cast=int)\n    user = db.auth_user(user_id) or redirect (URL(\'index\'))\n    query = db(db.auth_user.id).select()\n    return dict(query = query, user = user)\n\n#################### _EDIT Pages ####################\n\ndef guidePost_EDIT():\n    """ Edit page for selected guide post """\n    selectedPost = db.guidePost(request.args(0))\n    postForm = SQLFORM(db.guidePost, selectedPost, deletable=True, showid=False)\n    if postForm.process().accepted:\n        response.flash = \'Edit Sucessful\'\n    elif postForm.errors:\n        response.flash = \'Edit Failure\'\n    return dict(postForm = postForm)\n\ndef hunt_admin_EDIT():\n    """ Edit page for selected scavenger hunt """\n    selectedHunt = db.scavenger_hunt(request.args(0))\n    huntForm = SQLFORM(db.scavenger_hunt, selectedHunt, deletable=True,\n                       showid=False)\n    if huntForm.process().accepted:\n        response.flash = \'Edit Sucessful\'\n    elif huntForm.errors:\n        response.flash = \'Edit Failure\'\n    return dict(huntForm = huntForm)\n\ndef clue_EDIT():\n    """ Edit page for selected clue """\n    from gluon.tools import geocode\n    selectedClue = db.clue(request.args(0))\n    clueForm = SQLFORM(db.clue, selectedClue, deletable=True, showid=False)\n    if clueForm.process().accepted:\n        response.flash = \'Edit Sucessful\'\n    elif clueForm.errors:\n        response.flash = \'Edit Failure\'\n    \n    latitude = longtitude = \'\'\n    form=SQLFORM.factory(Field(\'search\'), _class=\'form-search\')\n    form.custom.widget.search[\'_class\'] = \'input-long search-query\'\n    form.custom.submit[\'_value\'] = \'Search\'\n    form.custom.submit[\'_class\'] = \'btn\'\n    \n    if form.accepts(request):\n        address=form.vars.search\n        (latitude, longitude) = geocode(address)\n    else:\n        (latitude, longitude) = (\'\',\'\')\n\n    return dict(form=form, latitude=latitude, longitude=longitude,\n                clueForm = clueForm)\n\ndef session_EDIT():\n    """ Edit page for selected session """\n    selectedSession = db.scavi_session(request.args(0))\n    sessionForm = SQLFORM(db.scavi_session, selectedSession, deletable=True,\n                          showid=False)\n    if sessionForm.process().accepted:\n        response.flash = \'Edit Sucessful\'\n    elif sessionForm.errors:\n        response.flash = \'Edit Failure\'\n    return dict(sessionForm = sessionForm)\n\n#################### _CREATE Pages ####################\n\ndef clue_CREATE():\n    """ Clue creation """\n    from gluon.tools import geocode\n\n    clueCreate = SQLFORM(db.clue)\n    if clueCreate.process().accepted:\n        response.flash = \'form accepted\'\n    elif clueCreate.errors:\n        response.flash = \'form has errors\'\n\n    latitude = longtitude = \'\'\n    form=SQLFORM.factory(Field(\'search\'), _class=\'form-search\')\n    form.custom.widget.search[\'_class\'] = \'input-long search-query\'\n    form.custom.submit[\'_value\'] = \'Search\'\n    form.custom.submit[\'_class\'] = \'btn\'\n    if form.accepts(request):\n        address=form.vars.search\n        (latitude, longitude) = geocode(address)\n    else:\n        (latitude, longitude) = (\'\',\'\')\n    return dict(form=form, latitude=latitude, longitude=longitude,\n                clueCreate = clueCreate)\n\ndef hunt_admin_CREATE():\n    """ Scavenger hunt creation """\n    scavengerCreate = SQLFORM(db.scavenger_hunt)\n    if scavengerCreate.process().accepted:\n        response.flash = \'form accepted\'\n    elif scavengerCreate.errors:\n        response.flash = \'form has errors\'\n    return dict(scavengerCreate = scavengerCreate)\n\ndef session_CREATE():\n    """ Session creation for a scavenger hunt """\n    scavSessionCreate = SQLFORM(db.scavi_session)\n    if scavSessionCreate.process().accepted:\n        response.flash = \'form accepted\'\n    elif scavSessionCreate.errors:\n        response.flash = \'form has errors\'\n    return dict(scavSessionCreate = scavSessionCreate)\n\ndef guidePost_CREATE():\n    """ Creation of a guide post for index view """\n    documentCreate = SQLFORM(db.guidePost)\n    if documentCreate.process().accepted:\n        response.flash = \'form accepted\'\n    elif documentCreate.errors:\n        response.flash = \'form has errors\'\n    return dict(documentCreate = documentCreate)\n\n#################### REST CALLS ####################\n\ndef applogin():\n    """ REST call for user login, currently only login with a user\'s email """\n    email = request.vars[\'email\']\n    \n    logged_user = db((db.auth_user.email == email)).select()\n    return dict(logged_user = logged_user)\n\ndef huntsession():\n    """ REST call for retrieving each user\'s hunt sessions """\n    user_id = request.vars[\'user_id\']\n    hunt_id = request.vars[\'hunt_id\']\n    query = ((db.scavi_session.hunt_id == hunt_id) & (db.scavi_session.user_id == user_id))\n    usersession = db(query).select()\n    clueQuery = db.clue.hunt_id==hunt_id\n    clueRows = db(clueQuery).select()\n    \n    if len(usersession) < 1:\n        id = db.scavi_session.insert(user_id=user_id, hunt_id=hunt_id)\n        usersession = db((db.scavi_session.id == id)).select()\n    \n    return dict(session = usersession, rows=clueRows)\n\ndef updatesession():\n    """ REST call for updating and storing each user\'s hunt sessions """\n    user_id = request.vars[\'user_id\']\n    hunt_id = request.vars[\'hunt_id\']\n    current_clue_number = request.vars[\'current_clue_number\']\n    points = request.vars[\'points\']\n    \n    query = ((db.scavi_session.hunt_id == hunt_id) & (db.scavi_session.user_id == user_id))\n    usersession = db(query).update(current_clue_number=current_clue_number)\n    \n    return dict(status=\'success\')\n\n#################### Extras ####################\n\ndef user():\n    """\n    exposes:\n    http://..../[app]/default/user/login\n    http://..../[app]/default/user/logout\n    http://..../[app]/default/user/register\n    http://..../[app]/default/user/profile\n    http://..../[app]/default/user/retrieve_password\n    http://..../[app]/default/user/change_password\n    http://..../[app]/default/user/manage_users (requires membership in\n    use @auth.requires_login()\n        @auth.requires_membership(\'group name\')\n        @auth.requires_permission(\'read\',\'table name\',record_id)\n    to decorate functions that need access control\n    """\n    return dict(form=auth())\n\n@cache.action()\ndef download():\n    """\n    allows downloading of uploaded files\n    http://..../[app]/default/download/[filename]\n    """\n    return response.download(request, db)\n\ndef call():\n    """\n    exposes services. for example:\n    http://..../[app]/default/call/jsonrpc\n    decorate with @services.jsonrpc the functions to expose\n    supports xml, json, xmlrpc, jsonrpc, amfrpc, rss, csv\n    """\n    return service()\n\n\n@auth.requires_login() \ndef api():\n    """\n    this is example of API with access control\n    WEB2PY provides Hypermedia API (Collection+JSON) Experimental\n    """\n    from gluon.contrib.hypermedia import Collection\n    rules = {\n        \'<tablename>\': {\'GET\':{},\'POST\':{},\'PUT\':{},\'DELETE\':{}},\n        }\n    return Collection(db).process(request,response,rules)\n\nresponse._vars=response._caller(session_CREATE)\n'
p7
sS'snapshot'
p8
(dp9
S'exception'
p10
(dp11
S'__module__'
p12
S"'sqlite3'"
p13
sS'__getslice__'
p14
S"<method-wrapper '__getslice__' of IntegrityError object>"
p15
sS'__str__'
p16
S"<method-wrapper '__str__' of IntegrityError object>"
p17
sS'__reduce__'
p18
S'<built-in method __reduce__ of IntegrityError object>'
p19
sS'__dict__'
p20
S'{}'
p21
sS'__sizeof__'
p22
S'<built-in method __sizeof__ of IntegrityError object>'
p23
sS'__weakref__'
p24
S'None'
p25
sS'__init__'
p26
S"<method-wrapper '__init__' of IntegrityError object>"
p27
sS'__setattr__'
p28
S"<method-wrapper '__setattr__' of IntegrityError object>"
p29
sS'__reduce_ex__'
p30
S'<built-in method __reduce_ex__ of IntegrityError object>'
p31
sS'__new__'
p32
S'<built-in method __new__ of type object>'
p33
sS'__format__'
p34
S'<built-in method __format__ of IntegrityError object>'
p35
sS'__class__'
p36
S"<class 'sqlite3.IntegrityError'>"
p37
sS'__doc__'
p38
S'None'
p39
sS'__getitem__'
p40
S"<method-wrapper '__getitem__' of IntegrityError object>"
p41
sS'__setstate__'
p42
S'<built-in method __setstate__ of IntegrityError object>'
p43
sS'__getattribute__'
p44
S"<method-wrapper '__getattribute__' of IntegrityError object>"
p45
sS'args'
p46
S"('foreign key constraint failed',)"
p47
sS'__subclasshook__'
p48
S'<built-in method __subclasshook__ of type object>'
p49
sS'__unicode__'
p50
S'<built-in method __unicode__ of IntegrityError object>'
p51
sS'__delattr__'
p52
S"<method-wrapper '__delattr__' of IntegrityError object>"
p53
sS'__repr__'
p54
S"<method-wrapper '__repr__' of IntegrityError object>"
p55
sS'__hash__'
p56
S"<method-wrapper '__hash__' of IntegrityError object>"
p57
ssS'evalue'
p58
S'foreign key constraint failed'
p59
sS'request'
p60
cgluon.html
XML_unpickle
p61
(S'sB_\x00\x00<div><table><tr><td style="font-weight:bold;vertical-align:top;">ajax</td><td style="vertical-align:top;">:</td><td><div>False</div></td></tr><tr><td style="font-weight:bold;vertical-align:top;">application</td><td style="vertical-align:top;">:</td><td><div>ScaviHunt</div></td></tr><tr><td style="font-weight:bold;vertical-align:top;">args</td><td style="vertical-align:top;">:</td><td><div><table></table></div></td></tr><tr><td style="font-weight:bold;vertical-align:top;">cid</td><td style="vertical-align:top;">:</td><td><div>None</div></td></tr><tr><td style="font-weight:bold;vertical-align:top;">client</td><td style="vertical-align:top;">:</td><td><div>127.0.0.1</div></td></tr><tr><td style="font-weight:bold;vertical-align:top;">controller</td><td style="vertical-align:top;">:</td><td><div>default</div></td></tr><tr><td style="font-weight:bold;vertical-align:top;">cookies</td><td style="vertical-align:top;">:</td><td><div><table><tr><td style="font-weight:bold;vertical-align:top;">session_id_admin</td><td style="vertical-align:top;">:</td><td><div>127.0.0.1-9aebed2f-f28f-4028-bbcd-fff7c08c60e9<table><tr><td style="font-weight:bold;vertical-align:top;">comment</td><td style="vertical-align:top;">:</td><td><div></div></td></tr><tr><td style="font-weight:bold;vertical-align:top;">domain</td><td style="vertical-align:top;">:</td><td><div></div></td></tr><tr><td style="font-weight:bold;vertical-align:top;">expires</td><td style="vertical-align:top;">:</td><td><div></div></td></tr><tr><td style="font-weight:bold;vertical-align:top;">httponly</td><td style="vertical-align:top;">:</td><td><div></div></td></tr><tr><td style="font-weight:bold;vertical-align:top;">max-age</td><td style="vertical-align:top;">:</td><td><div></div></td></tr><tr><td style="font-weight:bold;vertical-align:top;">path</td><td style="vertical-align:top;">:</td><td><div></div></td></tr><tr><td style="font-weight:bold;vertical-align:top;">secure</td><td style="vertical-align:top;">:</td><td><div></div></td></tr><tr><td style="font-weight:bold;vertical-align:top;">version</td><td style="vertical-align:top;">:</td><td><div></div></td></tr></table></div></td></tr><tr><td style="font-weight:bold;vertical-align:top;">session_id_scavihunt</td><td style="vertical-align:top;">:</td><td><div>127.0.0.1-ae08c967-e727-40bc-975c-8bd973091a24<table><tr><td style="font-weight:bold;vertical-align:top;">comment</td><td style="vertical-align:top;">:</td><td><div></div></td></tr><tr><td style="font-weight:bold;vertical-align:top;">domain</td><td style="vertical-align:top;">:</td><td><div></div></td></tr><tr><td style="font-weight:bold;vertical-align:top;">expires</td><td style="vertical-align:top;">:</td><td><div></div></td></tr><tr><td style="font-weight:bold;vertical-align:top;">httponly</td><td style="vertical-align:top;">:</td><td><div></div></td></tr><tr><td style="font-weight:bold;vertical-align:top;">max-age</td><td style="vertical-align:top;">:</td><td><div></div></td></tr><tr><td style="font-weight:bold;vertical-align:top;">path</td><td style="vertical-align:top;">:</td><td><div></div></td></tr><tr><td style="font-weight:bold;vertical-align:top;">secure</td><td style="vertical-align:top;">:</td><td><div></div></td></tr><tr><td style="font-weight:bold;vertical-align:top;">version</td><td style="vertical-align:top;">:</td><td><div></div></td></tr></table></div></td></tr></table></div></td></tr><tr><td style="font-weight:bold;vertical-align:top;">env</td><td style="vertical-align:top;">:</td><td><div><table><tr><td style="font-weight:bold;vertical-align:top;">CONTENT_LENGTH</td><td style="vertical-align:top;">:</td><td><div>933</div></td></tr><tr><td style="font-weight:bold;vertical-align:top;">CONTENT_TYPE</td><td style="vertical-align:top;">:</td><td><div>multipart/form-data; boundary=---------------------------282141780322555</div></td></tr><tr><td style="font-weight:bold;vertical-align:top;">HTTP_ACCEPT</td><td style="vertical-align:top;">:</td><td><div>text/html,application/xhtml+xml,application/xml;q=0.9,*/*;q=0.8</div></td></tr><tr><td style="font-weight:bold;vertical-align:top;">HTTP_ACCEPT_ENCODING</td><td style="vertical-align:top;">:</td><td><div>gzip, deflate</div></td></tr><tr><td style="font-weight:bold;vertical-align:top;">HTTP_ACCEPT_LANGUAGE</td><td style="vertical-align:top;">:</td><td><div>en</div></td></tr><tr><td style="font-weight:bold;vertical-align:top;">HTTP_CONNECTION</td><td style="vertical-align:top;">:</td><td><div>keep-alive</div></td></tr><tr><td style="font-weight:bold;vertical-align:top;">HTTP_CONTENT_LENGTH</td><td style="vertical-align:top;">:</td><td><div>933</div></td></tr><tr><td style="font-weight:bold;vertical-align:top;">HTTP_CONTENT_TYPE</td><td style="vertical-align:top;">:</td><td><div>multipart/form-data; boundary=---------------------------282141780322555</div></td></tr><tr><td style="font-weight:bold;vertical-align:top;">HTTP_COOKIE</td><td style="vertical-align:top;">:</td><td><div>session_id_scavihunt=127.0.0.1-ae08c967-e727-40bc-975c-8bd973091a24; session_id_admin=127.0.0.1-9aebed2f-f28f-4028-bbcd-fff7c08c60e9</div></td></tr><tr><td style="font-weight:bold;vertical-align:top;">HTTP_DNT</td><td style="vertical-align:top;">:</td><td><div>1</div></td></tr><tr><td style="font-weight:bold;vertical-align:top;">HTTP_HOST</td><td style="vertical-align:top;">:</td><td><div>127.0.0.1:8000</div></td></tr><tr><td style="font-weight:bold;vertical-align:top;">HTTP_REFERER</td><td style="vertical-align:top;">:</td><td><div>http://127.0.0.1:8000/ScaviHunt/default/session_CREATE</div></td></tr><tr><td style="font-weight:bold;vertical-align:top;">HTTP_USER_AGENT</td><td style="vertical-align:top;">:</td><td><div>Mozilla/5.0 (Windows NT 6.3; WOW64; rv:36.0) Gecko/20100101 Firefox/36.0</div></td></tr><tr><td style="font-weight:bold;vertical-align:top;">PATH_INFO</td><td style="vertical-align:top;">:</td><td><div>/ScaviHunt/default/session_CREATE</div></td></tr><tr><td style="font-weight:bold;vertical-align:top;">QUERY_STRING</td><td style="vertical-align:top;">:</td><td><div></div></td></tr><tr><td style="font-weight:bold;vertical-align:top;">REMOTE_ADDR</td><td style="vertical-align:top;">:</td><td><div>127.0.0.1</div></td></tr><tr><td style="font-weight:bold;vertical-align:top;">REMOTE_PORT</td><td style="vertical-align:top;">:</td><td><div>51738</div></td></tr><tr><td style="font-weight:bold;vertical-align:top;">REQUEST_METHOD</td><td style="vertical-align:top;">:</td><td><div>POST</div></td></tr><tr><td style="font-weight:bold;vertical-align:top;">SCRIPT_NAME</td><td style="vertical-align:top;">:</td><td><div></div></td></tr><tr><td style="font-weight:bold;vertical-align:top;">SERVER_NAME</td><td style="vertical-align:top;">:</td><td><div>Piotr-PC</div></td></tr><tr><td style="font-weight:bold;vertical-align:top;">SERVER_PORT</td><td style="vertical-align:top;">:</td><td><div>8000</div></td></tr><tr><td style="font-weight:bold;vertical-align:top;">SERVER_PROTOCOL</td><td style="vertical-align:top;">:</td><td><div>HTTP/1.1</div></td></tr><tr><td style="font-weight:bold;vertical-align:top;">SERVER_SOFTWARE</td><td style="vertical-align:top;">:</td><td><div>Rocket 1.2.6</div></td></tr><tr><td style="font-weight:bold;vertical-align:top;">app_folders</td><td style="vertical-align:top;">:</td><td><div>set([&#x27;E:\\\\web2py\\\\applications\\\\ScaviHunt\\\\&#x27;, &#x27;E:\\\\web2py\\\\applications\\\\admin\\\\&#x27;])</div></td></tr><tr><td style="font-weight:bold;vertical-align:top;">applications_parent</td><td style="vertical-align:top;">:</td><td><div>E:\\web2py</div></td></tr><tr><td style="font-weight:bold;vertical-align:top;">cmd_args</td><td style="vertical-align:top;">:</td><td><div><table></table></div></td></tr><tr><td style="font-weight:bold;vertical-align:top;">cmd_options</td><td style="vertical-align:top;">:</td><td><div>&lt;Values at 0x2c9e5f8: {&#x27;verbose&#x27;: False, &#x27;ip&#x27;: &#x27;127.0.0.1&#x27;, &#x27;debuglevel&#x27;: 30, &#x27;with_scheduler&#x27;: False, &#x27;ips&#x27;: [&#x27;192.168.1.10&#x27;, &#x27;2601:d:4481:9375:c1e6:a3a6:1ad4:a5ce&#x27;, &#x27;2601:d:4481:9375:5428:59f7:3f00:466f&#x27;, &#x27;fe80::c1e6:a3a6:1ad4:a5ce%5&#x27;, &#x27;2001:0:9d38:90d7:2cbd:2398:3f57:fef5&#x27;, &#x27;fe80::2cbd:2398:3f57:fef5%7&#x27;], &#x27;shutdown_timeout&#x27;: 5, &#x27;taskbar&#x27;: False, &#x27;with_coverage&#x27;: False, &#x27;scheduler_groups&#x27;: None, &#x27;port&#x27;: 8000, &#x27;maxthreads&#x27;: None, &#x27;softcron&#x27;: False, &#x27;server_name&#x27;: &#x27;Piotr-PC&#x27;, &#x27;bpython&#x27;: False, &#x27;nogui&#x27;: False, &#x27;pid_filename&#x27;: &#x27;httpserver.pid&#x27;, &#x27;extcron&#x27;: False, &#x27;runcron&#x27;: False, &#x27;run_system_tests&#x27;: False, &#x27;test&#x27;: None, &#x27;folder&#x27;: &#x27;E:\\\\web2py&#x27;, &#x27;config&#x27;: &#x27;&#x27;, &#x27;minthreads&#x27;: None, &#x27;shell&#x27;: None, &#x27;run&#x27;: &#x27;&#x27;, &#x27;log_filename&#x27;: &#x27;httpserver.log&#x27;, &#x27;profiler_dir&#x27;: None, &#x27;args&#x27;: [&#x27;&#x27;], &#x27;socket_timeout&#x27;: 5, &#x27;ssl_ca_certificate&#x27;: None, &#x27;scheduler&#x27;: None, &#x27;interfaces&#x27;: None, &#x27;ssl_private_key&#x27;: &#x27;&#x27;, &#x27;gae&#x27;: None, &#x27;password&#x27;: &#x27;&lt;ask&gt;&#x27;, &#x27;request_queue_size&#x27;: 5, &#x27;ssl_certificate&#x27;: &#x27;&#x27;, &#x27;cronjob&#x27;: False, &#x27;numthreads&#x27;: None, &#x27;quiet&#x27;: False, &#x27;import_models&#x27;: False, &#x27;timeout&#x27;: 10, &#x27;plain&#x27;: False, &#x27;nobanner&#x27;: False}&gt;</div></td></tr><tr><td style="font-weight:bold;vertical-align:top;">content_length</td><td style="vertical-align:top;">:</td><td><div>933</div></td></tr><tr><td style="font-weight:bold;vertical-align:top;">content_type</td><td style="vertical-align:top;">:</td><td><div>multipart/form-data; boundary=---------------------------282141780322555</div></td></tr><tr><td style="font-weight:bold;vertical-align:top;">db_sessions</td><td style="vertical-align:top;">:</td><td><div>set([])</div></td></tr><tr><td style="font-weight:bold;vertical-align:top;">debugging</td><td style="vertical-align:top;">:</td><td><div>False</div></td></tr><tr><td style="font-weight:bold;vertical-align:top;">gluon_parent</td><td style="vertical-align:top;">:</td><td><div>E:\\web2py</div></td></tr><tr><td style="font-weight:bold;vertical-align:top;">http_accept</td><td style="vertical-align:top;">:</td><td><div>text/html,application/xhtml+xml,application/xml;q=0.9,*/*;q=0.8</div></td></tr><tr><td style="font-weight:bold;vertical-align:top;">http_accept_encoding</td><td style="vertical-align:top;">:</td><td><div>gzip, deflate</div></td></tr><tr><td style="font-weight:bold;vertical-align:top;">http_accept_language</td><td style="vertical-align:top;">:</td><td><div>en</div></td></tr><tr><td style="font-weight:bold;vertical-align:top;">http_connection</td><td style="vertical-align:top;">:</td><td><div>keep-alive</div></td></tr><tr><td style="font-weight:bold;vertical-align:top;">http_content_length</td><td style="vertical-align:top;">:</td><td><div>933</div></td></tr><tr><td style="font-weight:bold;vertical-align:top;">http_content_type</td><td style="vertical-align:top;">:</td><td><div>multipart/form-data; boundary=---------------------------282141780322555</div></td></tr><tr><td style="font-weight:bold;vertical-align:top;">http_cookie</td><td style="vertical-align:top;">:</td><td><div>session_id_scavihunt=127.0.0.1-ae08c967-e727-40bc-975c-8bd973091a24; session_id_admin=127.0.0.1-9aebed2f-f28f-4028-bbcd-fff7c08c60e9</div></td></tr><tr><td style="font-weight:bold;vertical-align:top;">http_dnt</td><td style="vertical-align:top;">:</td><td><div>1</div></td></tr><tr><td style="font-weight:bold;vertical-align:top;">http_host</td><td style="vertical-align:top;">:</td><td><div>127.0.0.1:8000</div></td></tr><tr><td style="font-weight:bold;vertical-align:top;">http_referer</td><td style="vertical-align:top;">:</td><td><div>http://127.0.0.1:8000/ScaviHunt/default/session_CREATE</div></td></tr><tr><td style="font-weight:bold;vertical-align:top;">http_user_agent</td><td style="vertical-align:top;">:</td><td><div>Mozilla/5.0 (Windows NT 6.3; WOW64; rv:36.0) Gecko/20100101 Firefox/36.0</div></td></tr><tr><td style="font-weight:bold;vertical-align:top;">is_jython</td><td style="vertical-align:top;">:</td><td><div>False</div></td></tr><tr><td style="font-weight:bold;vertical-align:top;">is_pypy</td><td style="vertical-align:top;">:</td><td><div>False</div></td></tr><tr><td style="font-weight:bold;vertical-align:top;">is_source</td><td style="vertical-align:top;">:</td><td><div>False</div></td></tr><tr><td style="font-weight:bold;vertical-align:top;">local_hosts</td><td style="vertical-align:top;">:</td><td><div><table><tr><td><div>Piotr-PC</div></td></tr><tr><td><div>192.168.1.10</div></td></tr><tr><td><div>::ffff:127.0.0.1</div></td></tr><tr><td><div>::1</div></td></tr><tr><td><div>2601:d:4481:9375:5428:59f7:3f00:466f</div></td></tr><tr><td><div>fe80::c1e6:a3a6:1ad4:a5ce%5</div></td></tr><tr><td><div>2001:0:9d38:90d7:2cbd:2398:3f57:fef5</div></td></tr><tr><td><div>2601:d:4481:9375:c1e6:a3a6:1ad4:a5ce</div></td></tr><tr><td><div>fe80::2cbd:2398:3f57:fef5%7</div></td></tr><tr><td><div>127.0.0.1</div></td></tr></table></div></td></tr><tr><td style="font-weight:bold;vertical-align:top;">path_info</td><td style="vertical-align:top;">:</td><td><div>/ScaviHunt/default/session_CREATE</div></td></tr><tr><td style="font-weight:bold;vertical-align:top;">query_string</td><td style="vertical-align:top;">:</td><td><div></div></td></tr><tr><td style="font-weight:bold;vertical-align:top;">remote_addr</td><td style="vertical-align:top;">:</td><td><div>127.0.0.1</div></td></tr><tr><td style="font-weight:bold;vertical-align:top;">remote_port</td><td style="vertical-align:top;">:</td><td><div>51738</div></td></tr><tr><td style="font-weight:bold;vertical-align:top;">request_method</td><td style="vertical-align:top;">:</td><td><div>POST</div></td></tr><tr><td style="font-weight:bold;vertical-align:top;">request_uri</td><td style="vertical-align:top;">:</td><td><div>/ScaviHunt/default/session_CREATE</div></td></tr><tr><td style="font-weight:bold;vertical-align:top;">script_name</td><td style="vertical-align:top;">:</td><td><div></div></td></tr><tr><td style="font-weight:bold;vertical-align:top;">server_name</td><td style="vertical-align:top;">:</td><td><div>Piotr-PC</div></td></tr><tr><td style="font-weight:bold;vertical-align:top;">server_port</td><td style="vertical-align:top;">:</td><td><div>8000</div></td></tr><tr><td style="font-weight:bold;vertical-align:top;">server_protocol</td><td style="vertical-align:top;">:</td><td><div>HTTP/1.1</div></td></tr><tr><td style="font-weight:bold;vertical-align:top;">server_software</td><td style="vertical-align:top;">:</td><td><div>Rocket 1.2.6</div></td></tr><tr><td style="font-weight:bold;vertical-align:top;">web2py_path</td><td style="vertical-align:top;">:</td><td><div>E:\\web2py</div></td></tr><tr><td style="font-weight:bold;vertical-align:top;">web2py_version</td><td style="vertical-align:top;">:</td><td><div>2.9.11-stable+timestamp.2014.09.15.23.35.11</div></td></tr><tr><td style="font-weight:bold;vertical-align:top;">wsgi.errors</td><td style="vertical-align:top;">:</td><td><div>&lt;open file &#x27;&lt;stderr&gt;&#x27;, mode &#x27;w&#x27; at 0x004B60D0&gt;</div></td></tr><tr><td style="font-weight:bold;vertical-align:top;">wsgi.file_wrapper</td><td style="vertical-align:top;">:</td><td><div>&lt;class wsgiref.util.FileWrapper at 0x01E71960&gt;</div></td></tr><tr><td style="font-weight:bold;vertical-align:top;">wsgi.input</td><td style="vertical-align:top;">:</td><td><div>&lt;socket._fileobject object at 0x048B6930&gt;</div></td></tr><tr><td style="font-weight:bold;vertical-align:top;">wsgi.multiprocess</td><td style="vertical-align:top;">:</td><td><div>False</div></td></tr><tr><td style="font-weight:bold;vertical-align:top;">wsgi.multithread</td><td style="vertical-align:top;">:</td><td><div>True</div></td></tr><tr><td style="font-weight:bold;vertical-align:top;">wsgi.run_once</td><td style="vertical-align:top;">:</td><td><div>False</div></td></tr><tr><td style="font-weight:bold;vertical-align:top;">wsgi.url_scheme</td><td style="vertical-align:top;">:</td><td><div>http</div></td></tr><tr><td style="font-weight:bold;vertical-align:top;">wsgi.version</td><td style="vertical-align:top;">:</td><td><div><table><tr><td><div>1</div></td></tr><tr><td><div>0</div></td></tr></table></div></td></tr><tr><td style="font-weight:bold;vertical-align:top;">wsgi_errors</td><td style="vertical-align:top;">:</td><td><div>&lt;open file &#x27;&lt;stderr&gt;&#x27;, mode &#x27;w&#x27; at 0x004B60D0&gt;</div></td></tr><tr><td style="font-weight:bold;vertical-align:top;">wsgi_file_wrapper</td><td style="vertical-align:top;">:</td><td><div>&lt;class wsgiref.util.FileWrapper at 0x01E71960&gt;</div></td></tr><tr><td style="font-weight:bold;vertical-align:top;">wsgi_input</td><td style="vertical-align:top;">:</td><td><div>&lt;socket._fileobject object at 0x048B6930&gt;</div></td></tr><tr><td style="font-weight:bold;vertical-align:top;">wsgi_multiprocess</td><td style="vertical-align:top;">:</td><td><div>False</div></td></tr><tr><td style="font-weight:bold;vertical-align:top;">wsgi_multithread</td><td style="vertical-align:top;">:</td><td><div>True</div></td></tr><tr><td style="font-weight:bold;vertical-align:top;">wsgi_run_once</td><td style="vertical-align:top;">:</td><td><div>False</div></td></tr><tr><td style="font-weight:bold;vertical-align:top;">wsgi_url_scheme</td><td style="vertical-align:top;">:</td><td><div>http</div></td></tr><tr><td style="font-weight:bold;vertical-align:top;">wsgi_version</td><td style="vertical-align:top;">:</td><td><div><table><tr><td><div>1</div></td></tr><tr><td><div>0</div></td></tr></table></div></td></tr></table></div></td></tr><tr><td style="font-weight:bold;vertical-align:top;">extension</td><td style="vertical-align:top;">:</td><td><div>html</div></td></tr><tr><td style="font-weight:bold;vertical-align:top;">folder</td><td style="vertical-align:top;">:</td><td><div>E:\\web2py\\applications\\ScaviHunt\\</div></td></tr><tr><td style="font-weight:bold;vertical-align:top;">function</td><td style="vertical-align:top;">:</td><td><div>session_CREATE</div></td></tr><tr><td style="font-weight:bold;vertical-align:top;">global_settings</td><td style="vertical-align:top;">:</td><td><div><table><tr><td style="font-weight:bold;vertical-align:top;">app_folders</td><td style="vertical-align:top;">:</td><td><div>set([&#x27;E:\\\\web2py\\\\applications\\\\ScaviHunt\\\\&#x27;, &#x27;E:\\\\web2py\\\\applications\\\\admin\\\\&#x27;])</div></td></tr><tr><td style="font-weight:bold;vertical-align:top;">applications_parent</td><td style="vertical-align:top;">:</td><td><div>E:\\web2py</div></td></tr><tr><td style="font-weight:bold;vertical-align:top;">cmd_args</td><td style="vertical-align:top;">:</td><td><div><table></table></div></td></tr><tr><td style="font-weight:bold;vertical-align:top;">cmd_options</td><td style="vertical-align:top;">:</td><td><div>&lt;Values at 0x2c9e5f8: {&#x27;verbose&#x27;: False, &#x27;ip&#x27;: &#x27;127.0.0.1&#x27;, &#x27;debuglevel&#x27;: 30, &#x27;with_scheduler&#x27;: False, &#x27;ips&#x27;: [&#x27;192.168.1.10&#x27;, &#x27;2601:d:4481:9375:c1e6:a3a6:1ad4:a5ce&#x27;, &#x27;2601:d:4481:9375:5428:59f7:3f00:466f&#x27;, &#x27;fe80::c1e6:a3a6:1ad4:a5ce%5&#x27;, &#x27;2001:0:9d38:90d7:2cbd:2398:3f57:fef5&#x27;, &#x27;fe80::2cbd:2398:3f57:fef5%7&#x27;], &#x27;shutdown_timeout&#x27;: 5, &#x27;taskbar&#x27;: False, &#x27;with_coverage&#x27;: False, &#x27;scheduler_groups&#x27;: None, &#x27;port&#x27;: 8000, &#x27;maxthreads&#x27;: None, &#x27;softcron&#x27;: False, &#x27;server_name&#x27;: &#x27;Piotr-PC&#x27;, &#x27;bpython&#x27;: False, &#x27;nogui&#x27;: False, &#x27;pid_filename&#x27;: &#x27;httpserver.pid&#x27;, &#x27;extcron&#x27;: False, &#x27;runcron&#x27;: False, &#x27;run_system_tests&#x27;: False, &#x27;test&#x27;: None, &#x27;folder&#x27;: &#x27;E:\\\\web2py&#x27;, &#x27;config&#x27;: &#x27;&#x27;, &#x27;minthreads&#x27;: None, &#x27;shell&#x27;: None, &#x27;run&#x27;: &#x27;&#x27;, &#x27;log_filename&#x27;: &#x27;httpserver.log&#x27;, &#x27;profiler_dir&#x27;: None, &#x27;args&#x27;: [&#x27;&#x27;], &#x27;socket_timeout&#x27;: 5, &#x27;ssl_ca_certificate&#x27;: None, &#x27;scheduler&#x27;: None, &#x27;interfaces&#x27;: None, &#x27;ssl_private_key&#x27;: &#x27;&#x27;, &#x27;gae&#x27;: None, &#x27;password&#x27;: &#x27;&lt;ask&gt;&#x27;, &#x27;request_queue_size&#x27;: 5, &#x27;ssl_certificate&#x27;: &#x27;&#x27;, &#x27;cronjob&#x27;: False, &#x27;numthreads&#x27;: None, &#x27;quiet&#x27;: False, &#x27;import_models&#x27;: False, &#x27;timeout&#x27;: 10, &#x27;plain&#x27;: False, &#x27;nobanner&#x27;: False}&gt;</div></td></tr><tr><td style="font-weight:bold;vertical-align:top;">db_sessions</td><td style="vertical-align:top;">:</td><td><div>set([])</div></td></tr><tr><td style="font-weight:bold;vertical-align:top;">debugging</td><td style="vertical-align:top;">:</td><td><div>False</div></td></tr><tr><td style="font-weight:bold;vertical-align:top;">gluon_parent</td><td style="vertical-align:top;">:</td><td><div>E:\\web2py</div></td></tr><tr><td style="font-weight:bold;vertical-align:top;">is_jython</td><td style="vertical-align:top;">:</td><td><div>False</div></td></tr><tr><td style="font-weight:bold;vertical-align:top;">is_pypy</td><td style="vertical-align:top;">:</td><td><div>False</div></td></tr><tr><td style="font-weight:bold;vertical-align:top;">is_source</td><td style="vertical-align:top;">:</td><td><div>False</div></td></tr><tr><td style="font-weight:bold;vertical-align:top;">local_hosts</td><td style="vertical-align:top;">:</td><td><div><table><tr><td><div>Piotr-PC</div></td></tr><tr><td><div>192.168.1.10</div></td></tr><tr><td><div>::ffff:127.0.0.1</div></td></tr><tr><td><div>::1</div></td></tr><tr><td><div>2601:d:4481:9375:5428:59f7:3f00:466f</div></td></tr><tr><td><div>fe80::c1e6:a3a6:1ad4:a5ce%5</div></td></tr><tr><td><div>2001:0:9d38:90d7:2cbd:2398:3f57:fef5</div></td></tr><tr><td><div>2601:d:4481:9375:c1e6:a3a6:1ad4:a5ce</div></td></tr><tr><td><div>fe80::2cbd:2398:3f57:fef5%7</div></td></tr><tr><td><div>127.0.0.1</div></td></tr></table></div></td></tr><tr><td style="font-weight:bold;vertical-align:top;">web2py_version</td><td style="vertical-align:top;">:</td><td><div>2.9.11-stable+timestamp.2014.09.15.23.35.11</div></td></tr></table></div></td></tr><tr><td style="font-weight:bold;vertical-align:top;">is_https</td><td style="vertical-align:top;">:</td><td><div>False</div></td></tr><tr><td style="font-weight:bold;vertical-align:top;">is_local</td><td style="vertical-align:top;">:</td><td><div>True</div></td></tr><tr><td style="font-weight:bold;vertical-align:top;">is_restful</td><td style="vertical-align:top;">:</td><td><div>False</div></td></tr><tr><td style="font-weight:bold;vertical-align:top;">is_sheduler</td><td style="vertical-align:top;">:</td><td><div>None</div></td></tr><tr><td style="font-weight:bold;vertical-align:top;">is_shell</td><td style="vertical-align:top;">:</td><td><div>None</div></td></tr><tr><td style="font-weight:bold;vertical-align:top;">now</td><td style="vertical-align:top;">:</td><td><div>datetime.datetime(2015, 3, 18, 16, 30, 8, 873000)</div></td></tr><tr><td style="font-weight:bold;vertical-align:top;">raw_args</td><td style="vertical-align:top;">:</td><td><div></div></td></tr><tr><td style="font-weight:bold;vertical-align:top;">raw_extension</td><td style="vertical-align:top;">:</td><td><div>None</div></td></tr><tr><td style="font-weight:bold;vertical-align:top;">url</td><td style="vertical-align:top;">:</td><td><div>/ScaviHunt/default/session_CREATE</div></td></tr><tr><td style="font-weight:bold;vertical-align:top;">utcnow</td><td style="vertical-align:top;">:</td><td><div>datetime.datetime(2015, 3, 18, 21, 30, 8, 873000)</div></td></tr><tr><td style="font-weight:bold;vertical-align:top;">uuid</td><td style="vertical-align:top;">:</td><td><div>ScaviHunt/127.0.0.1.2015-03-18.16-30-08.3d85e079-a5e8-4d25-9c93-ac88b9a8bfd7</div></td></tr><tr><td style="font-weight:bold;vertical-align:top;">wsgi</td><td style="vertical-align:top;">:</td><td><div>&lt;gluon.main.LazyWSGI object at 0x048B3EB0&gt;</div></td></tr></table></div>'
tRp62
sS'frames'
p63
(lp64
(dp65
S'file'
p66
S'E:\\web2py\\gluon\\restricted.py'
p67
sS'dump'
p68
(dp69
sS'lnum'
p70
I224
sS'lines'
p71
(dp72
sS'call'
p73
S"(code='# -*- coding: utf-8 -*-\\n\\n#################### Ma...\\nresponse._vars=response._caller(session_CREATE)\\n', environment={'A': <class 'gluon.html.A'>, 'ANY_OF': <class 'gluon.validators.ANY_OF'>, 'ASSIGNJS': <function ASSIGNJS>, 'Auth': <class 'gluon.tools.Auth'>, 'B': <class 'gluon.html.B'>, 'BEAUTIFY': <class 'gluon.html.BEAUTIFY'>, 'BODY': <class 'gluon.html.BODY'>, 'BR': <class 'gluon.html.BR'>, 'BUTTON': <class 'gluon.html.BUTTON'>, 'CAT': <class 'gluon.html.CAT'>, ...}, layer=r'E:\\web2py\\applications\\ScaviHunt\\controllers/default.py')"
p74
sS'func'
p75
S'restricted'
p76
sa(dp77
g66
S'E:\\web2py\\applications\\ScaviHunt\\controllers\\default.py'
p78
sg68
(dp79
sg70
I277
sg71
(dp80
I266
S'def api():'
p81
sI267
S'    """'
p82
sI268
S'    this is example of API with access control'
p83
sI269
S'    WEB2PY provides Hypermedia API (Collection+JSON) Experimental'
p84
sI270
S'    """'
p85
sI271
S'    from gluon.contrib.hypermedia import Collection'
p86
sI272
S'    rules = {'
p87
sI273
S"        '<tablename>': {'GET':{},'POST':{},'PUT':{},'DELETE':{}},"
p88
sI274
S'        }'
p89
sI275
S'    return Collection(db).process(request,response,rules)'
p90
ssg73
S'()'
p91
sg75
S'<module>'
p92
sa(dp93
g66
S'E:\\web2py\\gluon\\globals.py'
p94
sg68
(dp95
sg70
I392
sg71
(dp96
sg73
S'(f=<function session_CREATE>)'
p97
sg75
S'<lambda>'
p98
sa(dp99
g66
S'E:\\web2py\\applications\\ScaviHunt\\controllers\\default.py'
p100
sg68
(dp101
S'scavSessionCreate'
p102
S'<gluon.sqlhtml.SQLFORM object>'
p103
sS').accepted'
p104
S'undefined'
p105
sS'scavSessionCreate.process'
p106
S'<bound method SQLFORM.process of <gluon.sqlhtml.SQLFORM object>>'
p107
ssg70
I177
sg71
(dp108
I172
S'    return dict(scavengerCreate = scavengerCreate)'
p109
sI173
S''
sI174
S'def session_CREATE():'
p110
sI175
S'    """ Session creation for a scavenger hunt """'
p111
sI176
S'    scavSessionCreate = SQLFORM(db.scavi_session)'
p112
sI177
S'    if scavSessionCreate.process().accepted:'
p113
sI178
S"        response.flash = 'form accepted'"
p114
sI179
S'    elif scavSessionCreate.errors:'
p115
sI180
S"        response.flash = 'form has errors'"
p116
sI181
S'    return dict(scavSessionCreate = scavSessionCreate)'
p117
ssg73
S'()'
p118
sg75
S'session_CREATE'
p119
sa(dp120
g66
S'E:\\web2py\\gluon\\html.py'
p121
sg68
(dp122
sg70
I2303
sg71
(dp123
sg73
S"(self=<gluon.sqlhtml.SQLFORM object>, **kwargs={'dbio': True})"
p124
sg75
S'process'
p125
sa(dp126
g66
S'E:\\web2py\\gluon\\html.py'
p127
sg68
(dp128
sg70
I2240
sg71
(dp129
sg73
S"(self=<gluon.sqlhtml.SQLFORM object>, **kwargs={'dbio': True, 'request_vars': <Storage {'next_clue_id': 'Not In Use', 'user_id...ormkey': '5dcadd96-5062-41a8-be8b-97996e5762c3'}>, 'session': <Storage {'_formkey[scavenger_hunt/3]': ['5c67fb...4d5a5', 'c668d3d9-446f-4609-b677-de6555d509a1']}>})"
p130
sg75
S'validate'
p131
sa(dp132
g66
S'E:\\web2py\\gluon\\sqlhtml.py'
p133
sg68
(dp134
sg70
I1671
sg71
(dp135
sg73
S"(self=<gluon.sqlhtml.SQLFORM object>, request_vars=<Storage {'next_clue_id': 'Not In Use', 'user_id...ormkey': '5dcadd96-5062-41a8-be8b-97996e5762c3'}>, session=<Storage {'_formkey[scavenger_hunt/3]': ['5c67fb...4d5a5', 'c668d3d9-446f-4609-b677-de6555d509a1']}>, formname='scavi_session/create', keepvalues=False, onvalidation=None, dbio=True, hideerror=False, detect_record_change=False, **kwargs={})"
p136
sg75
S'accepts'
p137
sa(dp138
g66
S'E:\\web2py\\gluon\\dal.py'
p139
sg68
(dp140
sg70
I9317
sg71
(dp141
sg73
S"(self=<Table scavi_session (id,user_id,hunt_id,next_clue_id,current_clue_number,points,is_in_progress)>, **fields={'current_clue_number': 0, 'hunt_id': 3, 'is_in_progress': True, 'next_clue_id': 0, 'points': 10, 'user_id': 158})"
p142
sg75
S'insert'
p143
sa(dp144
g66
S'E:\\web2py\\gluon\\dal.py'
p145
sg68
(dp146
sg70
I1361
sg71
(dp147
sg73
S'(self=<gluon.dal.SQLiteAdapter object>, table=<Table scavi_session (id,user_id,hunt_id,next_clue_id,current_clue_number,points,is_in_progress)>, fields=[(<gluon.dal.Field object>, 0), (<gluon.dal.Field object>, 158), (<gluon.dal.Field object>, 0), (<gluon.dal.Field object>, 10), (<gluon.dal.Field object>, True), (<gluon.dal.Field object>, 3)])'
p148
sg75
g143
sasS'pyver'
p149
S'Python 2.7.6: E:\\web2py\\web2py.exe (prefix: C:\\Python27)'
p150
sS'session'
p151
g61
(S's>\x01\x00\x00<div><table><tr><td style="font-weight:bold;vertical-align:top;">last_orderby</td><td style="vertical-align:top;">:</td><td><div>None</div></td></tr><tr><td style="font-weight:bold;vertical-align:top;">last_query</td><td style="vertical-align:top;">:</td><td><div>db.scavi_session.id&gt;0</div></td></tr></table></div>'
tRp152
sS'etype'
p153
S"<class 'sqlite3.IntegrityError'>"
p154
sS'date'
p155
S'Wed Mar 18 16:30:08 2015'
p156
sS'response'
p157
g61
(S's\xad\x1d\x00\x00<div><table><tr><td style="font-weight:bold;vertical-align:top;">body</td><td style="vertical-align:top;">:</td><td><div>&lt;cStringIO.StringO object at 0x03B481A0&gt;</div></td></tr><tr><td style="font-weight:bold;vertical-align:top;">cookies</td><td style="vertical-align:top;">:</td><td><div><table><tr><td style="font-weight:bold;vertical-align:top;">session_id_scavihunt</td><td style="vertical-align:top;">:</td><td><div>127.0.0.1-ae08c967-e727-40bc-975c-8bd973091a24<table><tr><td style="font-weight:bold;vertical-align:top;">comment</td><td style="vertical-align:top;">:</td><td><div></div></td></tr><tr><td style="font-weight:bold;vertical-align:top;">domain</td><td style="vertical-align:top;">:</td><td><div></div></td></tr><tr><td style="font-weight:bold;vertical-align:top;">expires</td><td style="vertical-align:top;">:</td><td><div></div></td></tr><tr><td style="font-weight:bold;vertical-align:top;">httponly</td><td style="vertical-align:top;">:</td><td><div></div></td></tr><tr><td style="font-weight:bold;vertical-align:top;">max-age</td><td style="vertical-align:top;">:</td><td><div></div></td></tr><tr><td style="font-weight:bold;vertical-align:top;">path</td><td style="vertical-align:top;">:</td><td><div>/</div></td></tr><tr><td style="font-weight:bold;vertical-align:top;">secure</td><td style="vertical-align:top;">:</td><td><div></div></td></tr><tr><td style="font-weight:bold;vertical-align:top;">version</td><td style="vertical-align:top;">:</td><td><div></div></td></tr></table></div></td></tr></table></div></td></tr><tr><td style="font-weight:bold;vertical-align:top;">delimiters</td><td style="vertical-align:top;">:</td><td><div><table><tr><td><div>{{</div></td></tr><tr><td><div>}}</div></td></tr></table></div></td></tr><tr><td style="font-weight:bold;vertical-align:top;">files</td><td style="vertical-align:top;">:</td><td><div><table></table></div></td></tr><tr><td style="font-weight:bold;vertical-align:top;">flash</td><td style="vertical-align:top;">:</td><td><div></div></td></tr><tr><td style="font-weight:bold;vertical-align:top;">form_label_separator</td><td style="vertical-align:top;">:</td><td><div>: </div></td></tr><tr><td style="font-weight:bold;vertical-align:top;">formstyle</td><td style="vertical-align:top;">:</td><td><div>table3cols</div></td></tr><tr><td style="font-weight:bold;vertical-align:top;">generic_patterns</td><td style="vertical-align:top;">:</td><td><div><table><tr><td><div>*.json</div></td></tr></table></div></td></tr><tr><td style="font-weight:bold;vertical-align:top;">google_analytics_id</td><td style="vertical-align:top;">:</td><td><div>None</div></td></tr><tr><td style="font-weight:bold;vertical-align:top;">headers</td><td style="vertical-align:top;">:</td><td><div><table><tr><td style="font-weight:bold;vertical-align:top;">X-Powered-By</td><td style="vertical-align:top;">:</td><td><div>web2py</div></td></tr></table></div></td></tr><tr><td style="font-weight:bold;vertical-align:top;">logo</td><td style="vertical-align:top;">:</td><td><div><a class="brand" href="index"><b>Scavi-Hunt</b>&trade;&nbsp;</a></div></td></tr><tr><td style="font-weight:bold;vertical-align:top;">menu</td><td style="vertical-align:top;">:</td><td><div><table><tr><td><div><table><tr><td><div>Home</div></td></tr><tr><td><div>False</div></td></tr><tr><td><div>/ScaviHunt/default/index</div></td></tr></table></div></td></tr><tr><td><div><table><tr><td><div>Hunt Admin</div></td></tr><tr><td><div>False</div></td></tr><tr><td><div>/ScaviHunt/default/hunt_admin</div></td></tr></table></div></td></tr><tr><td><div><table><tr><td><div>User Admin</div></td></tr><tr><td><div>False</div></td></tr><tr><td><div>/ScaviHunt/default/user_admin</div></td></tr></table></div></td></tr></table></div></td></tr><tr><td style="font-weight:bold;vertical-align:top;">meta</td><td style="vertical-align:top;">:</td><td><div><table><tr><td style="font-weight:bold;vertical-align:top;">author</td><td style="vertical-align:top;">:</td><td><div>Your Name &lt;you@example.com&gt;</div></td></tr><tr><td style="font-weight:bold;vertical-align:top;">description</td><td style="vertical-align:top;">:</td><td><div>a cool new app</div></td></tr><tr><td style="font-weight:bold;vertical-align:top;">generator</td><td style="vertical-align:top;">:</td><td><div>Web2py Web Framework</div></td></tr><tr><td style="font-weight:bold;vertical-align:top;">keywords</td><td style="vertical-align:top;">:</td><td><div>web2py, python, framework</div></td></tr></table></div></td></tr><tr><td style="font-weight:bold;vertical-align:top;">models_to_run</td><td style="vertical-align:top;">:</td><td><div><table><tr><td><div>^\\w+\\.py$</div></td></tr><tr><td><div>^default/\\w+\\.py$</div></td></tr><tr><td><div>^default/session_CREATE/\\w+\\.py$</div></td></tr></table></div></td></tr><tr><td style="font-weight:bold;vertical-align:top;">postprocessing</td><td style="vertical-align:top;">:</td><td><div><table></table></div></td></tr><tr><td style="font-weight:bold;vertical-align:top;">session_client</td><td style="vertical-align:top;">:</td><td><div>127.0.0.1</div></td></tr><tr><td style="font-weight:bold;vertical-align:top;">session_cookie_compression_level</td><td style="vertical-align:top;">:</td><td><div>None</div></td></tr><tr><td style="font-weight:bold;vertical-align:top;">session_cookie_expires</td><td style="vertical-align:top;">:</td><td><div>None</div></td></tr><tr><td style="font-weight:bold;vertical-align:top;">session_cookie_key</td><td style="vertical-align:top;">:</td><td><div>None</div></td></tr><tr><td style="font-weight:bold;vertical-align:top;">session_data_name</td><td style="vertical-align:top;">:</td><td><div>session_data_scavihunt</div></td></tr><tr><td style="font-weight:bold;vertical-align:top;">session_file</td><td style="vertical-align:top;">:</td><td><div>&lt;open file &#x27;E:\\\\web2py\\\\applications\\\\ScaviHunt\\\\sessions\\\\136\\\\0b9\\\\127.0.0.1-ae08c967-e727-40bc-975c-8bd973091a24&#x27;, mode &#x27;rb+&#x27; at 0x03B27B20&gt;</div></td></tr><tr><td style="font-weight:bold;vertical-align:top;">session_filename</td><td style="vertical-align:top;">:</td><td><div>E:\\web2py\\applications\\ScaviHunt\\sessions\\127.0.0.1-ae08c967-e727-40bc-975c-8bd973091a24</div></td></tr><tr><td style="font-weight:bold;vertical-align:top;">session_hash</td><td style="vertical-align:top;">:</td><td><div>f2b96896ce366c8806d56b49999987f3</div></td></tr><tr><td style="font-weight:bold;vertical-align:top;">session_id</td><td style="vertical-align:top;">:</td><td><div>127.0.0.1-ae08c967-e727-40bc-975c-8bd973091a24</div></td></tr><tr><td style="font-weight:bold;vertical-align:top;">session_id_name</td><td style="vertical-align:top;">:</td><td><div>session_id_scavihunt</div></td></tr><tr><td style="font-weight:bold;vertical-align:top;">session_locked</td><td style="vertical-align:top;">:</td><td><div>True</div></td></tr><tr><td style="font-weight:bold;vertical-align:top;">session_masterapp</td><td style="vertical-align:top;">:</td><td><div>ScaviHunt</div></td></tr><tr><td style="font-weight:bold;vertical-align:top;">session_new</td><td style="vertical-align:top;">:</td><td><div>False</div></td></tr><tr><td style="font-weight:bold;vertical-align:top;">session_storage_type</td><td style="vertical-align:top;">:</td><td><div>file</div></td></tr><tr><td style="font-weight:bold;vertical-align:top;">status</td><td style="vertical-align:top;">:</td><td><div>200</div></td></tr><tr><td style="font-weight:bold;vertical-align:top;">view</td><td style="vertical-align:top;">:</td><td><div>default/session_CREATE.html</div></td></tr></table></div>'
tRp158
sS'locals'
p159
(dp160
S'query'
p161
S'"INSERT INTO scavi_session(next_clue_id,user_id,c...s_in_progress,hunt_id) VALUES (0,158,0,10,\'T\',3);"'
p162
sS'self'
p163
S'<gluon.dal.SQLiteAdapter object>'
p164
sS'e'
S"IntegrityError('foreign key constraint failed',)"
p165
sS'fields'
p166
S'[(<gluon.dal.Field object>, 0), (<gluon.dal.Field object>, 158), (<gluon.dal.Field object>, 0), (<gluon.dal.Field object>, 10), (<gluon.dal.Field object>, True), (<gluon.dal.Field object>, 3)]'
p167
sS'table'
p168
S'<Table scavi_session (id,user_id,hunt_id,next_clue_id,current_clue_number,points,is_in_progress)>'
p169
sssS'traceback'
p170
S'Traceback (most recent call last):\n  File "gluon/restricted.py", line 224, in restricted\n  File "E:\\web2py\\applications\\ScaviHunt\\controllers/default.py", line 277, in <module>\n  File "gluon/globals.py", line 392, in <lambda>\n  File "E:\\web2py\\applications\\ScaviHunt\\controllers/default.py", line 177, in session_CREATE\n    if scavSessionCreate.process().accepted:\n  File "gluon/html.py", line 2303, in process\n  File "gluon/html.py", line 2240, in validate\n  File "gluon/sqlhtml.py", line 1671, in accepts\n  File "gluon/dal.py", line 9317, in insert\n  File "gluon/dal.py", line 1361, in insert\nIntegrityError: foreign key constraint failed\n'
p171
s.